Certificate:
    Data:
        Version: 3 (0x2)
        Serial Number:
            5d:eb:da:33:70:3f:83:9b:6c:a4:f9:d5:af:14:65:76:ef:d8:dd:df
        Signature Algorithm: sha256WithRSAEncryption
        Issuer: C = US, ST = California, O = OpenTitan, OU = Engineering, CN = OpenTitan Test CA Certificate
        Validity
            Not Before: Dec 24 00:34:38 2021 GMT
            Not After : Jan 23 00:34:38 2022 GMT
        Subject: C = US, ST = California, O = OpenTitan, OU = Engineering, CN = OpenTitan Test CA Certificate
        Subject Public Key Info:
            Public Key Algorithm: rsaEncryption
                RSA Public-Key: (2048 bit)
                Modulus:
                    00:cc:a8:b8:4a:61:56:41:6c:8f:cf:d3:75:b4:8f:
                    6d:7a:74:fe:d2:46:a1:c6:15:b0:6f:91:a6:23:a0:
                    2a:8d:ff:77:d7:d4:6b:57:37:b5:2d:18:6b:82:2f:
                    66:9e:fb:b2:45:21:64:d1:87:b1:b0:fa:bd:94:60:
                    8a:10:5c:08:b2:7c:37:ce:65:20:e7:6a:1c:a0:cf:
                    0f:ef:bf:1e:28:6b:cf:b3:6c:44:f3:af:24:b5:6b:
                    fb:18:ff:eb:fe:37:b1:3e:4e:c8:ba:ad:04:af:86:
                    14:34:d4:83:81:d1:a0:c1:ed:57:c1:a5:95:0e:f1:
                    49:60:9f:5b:91:96:dc:07:2e:df:cb:c3:cf:e7:a3:
                    75:cb:16:c6:bc:a6:27:4e:00:54:6a:ff:8e:53:6e:
                    f5:e7:6c:9f:ad:08:84:f7:27:be:3f:7b:a8:1c:fc:
                    b6:57:f6:b7:17:55:ff:17:b6:c4:25:6d:76:58:b9:
                    a5:da:7f:05:6c:d8:2f:da:27:d8:90:5d:c9:61:dd:
                    74:27:3d:2e:5d:c1:58:1e:74:76:d7:5e:45:64:3a:
                    54:36:52:8e:b1:81:e8:d3:5c:a3:b8:72:cf:35:a1:
                    7e:21:86:e6:06:3d:a6:a9:fb:7c:2d:ce:61:55:33:
                    b8:75:8f:3b:0e:ef:1a:ce:69:50:8a:0b:c7:02:d7:
                    b7:b9
                Exponent: 65537 (0x10001)
        X509v3 extensions:
            X509v3 Subject Key Identifier:
                D0:2F:2E:90:24:C7:63:AA:09:86:62:1A:7C:6C:B9:F7:CA:28:0C:E8
            X509v3 Authority Key Identifier:
                keyid:D0:2F:2E:90:24:C7:63:AA:09:86:62:1A:7C:6C:B9:F7:CA:28:0C:E8

            X509v3 Basic Constraints: critical
                CA:TRUE
    Signature Algorithm: sha256WithRSAEncryption
         06:5b:7d:bd:1d:92:8d:d6:a4:a6:a4:ef:90:71:64:8b:29:92:
         60:42:80:b2:a3:11:4b:44:40:ee:11:09:74:57:b2:c1:ca:fc:
         1b:45:e2:ff:35:20:9a:7d:af:3b:a2:7b:d3:34:5a:d0:9b:1f:
         02:97:ea:c3:99:78:21:be:96:01:98:e3:25:03:2a:3e:68:f5:
         45:a9:dd:89:15:9f:38:0a:25:8e:fa:ee:b4:f7:ed:d5:29:04:
         d6:b0:29:1e:63:3a:d2:48:c9:f0:c1:29:25:22:7b:64:01:d9:
         a4:c4:e6:2a:80:f5:18:8f:a5:a1:a2:ab:57:08:6d:61:7b:9a:
         4f:23:6d:a8:33:be:fa:2b:fd:95:a7:35:69:97:52:14:67:76:
         bf:c6:4c:b3:55:97:76:29:8f:0d:df:0e:73:a6:7f:08:11:70:
         6c:6c:ce:55:28:69:4a:35:9b:0c:d3:6f:ad:3f:5a:e4:c6:b0:
         ca:63:eb:da:a1:be:0d:19:9b:09:b3:5d:e1:38:d2:64:17:61:
         4d:a9:fe:0f:79:9a:8b:3a:80:8d:1e:41:41:eb:09:8d:6f:d8:
         27:01:03:1b:71:29:ab:d3:5d:14:38:1f:56:a5:be:a8:c7:e5:
         71:40:ae:fd:5c:e1:4c:9d:8a:9a:f6:78:22:4d:9a:0d:59:71:
         78:4d:e1:25
-----BEGIN CERTIFICATE-----
MIIDyTCCArGgAwIBAgIUXevaM3A/g5tspPnVrxRldu/Y3d8wDQYJKoZIhvcNAQEL
BQAwdDELMAkGA1UEBhMCVVMxEzARBgNVBAgMCkNhbGlmb3JuaWExEjAQBgNVBAoM
CU9wZW5UaXRhbjEUMBIGA1UECwwLRW5naW5lZXJpbmcxJjAkBgNVBAMMHU9wZW5U
aXRhbiBUZXN0IENBIENlcnRpZmljYXRlMB4XDTIxMTIyNDAwMzQzOFoXDTIyMDEy
MzAwMzQzOFowdDELMAkGA1UEBhMCVVMxEzARBgNVBAgMCkNhbGlmb3JuaWExEjAQ
BgNVBAoMCU9wZW5UaXRhbjEUMBIGA1UECwwLRW5naW5lZXJpbmcxJjAkBgNVBAMM
HU9wZW5UaXRhbiBUZXN0IENBIENlcnRpZmljYXRlMIIBIjANBgkqhkiG9w0BAQEF
AAOCAQ8AMIIBCgKCAQEAzKi4SmFWQWyPz9N1tI9tenT+0kahxhWwb5GmI6Aqjf93
19RrVze1LRhrgi9mnvuyRSFk0YexsPq9lGCKEFwIsnw3zmUg52ocoM8P778eKGvP
s2xE868ktWv7GP/r/jexPk7Iuq0Er4YUNNSDgdGgwe1XwaWVDvFJYJ9bkZbcBy7f
y8PP56N1yxbGvKYnTgBUav+OU27152yfrQiE9ye+P3uoHPy2V/a3F1X/F7bEJW12
WLml2n8FbNgv2ifYkF3JYd10Jz0uXcFYHnR2115FZDpUNlKOsYHo01yjuHLPNaF+
IYbmBj2mqft8Lc5hVTO4dY87Du8azmlQigvHAte3uQIDAQABo1MwUTAdBgNVHQ4E
FgQU0C8ukCTHY6oJhmIafGy598ooDOgwHwYDVR0jBBgwFoAU0C8ukCTHY6oJhmIa
fGy598ooDOgwDwYDVR0TAQH/BAUwAwEB/zANBgkqhkiG9w0BAQsFAAOCAQEABlt9
vR2SjdakpqTvkHFkiymSYEKAsqMRS0RA7hEJdFeywcr8G0Xi/zUgmn2vO6J70zRa
0JsfApfqw5l4Ib6WAZjjJQMqPmj1RandiRWfOAoljvrutPft1SkE1rApHmM60kjJ
8MEpJSJ7ZAHZpMTmKoD1GI+loaKrVwhtYXuaTyNtqDO++iv9lac1aZdSFGd2v8ZM
s1WXdimPDd8Oc6Z/CBFwbGzOVShpSjWbDNNvrT9a5MawymPr2qG+DRmbCbNd4TjS
ZBdhTan+D3maizqAjR5BQesJjW/YJwEDG3Epq9NdFDgfVqW+qMflcUCu/VzhTJ2K
mvZ4Ik2aDVlxeE3hJQ==
-----END CERTIFICATE-----
-----BEGIN COMMENT-----
This cert is only used for testing purposes. The following command was used to
generate this key:

$ openssl req -new -x509 -nodes -key tpm_rsa_ca_key.pem -days\
    -out tpm_rsa_ca_cert.pem

TODO: This is long term error prone due to the fact that the Certificate will
eventually expire. A better solution is to generate a self-signed Certificate
inside the test case.
-----END COMMENT-----
